(dp1
S'paramsFile'
p2
V/Users/huberl/Documents/Programme_und_Grafik/TappingWithTrTiming/Pickles/TappingParams.picklecvb
p3
sS'session'
p4
I1
sS'skipPrompts'
p5
I00
sS'condition'
p6
VTapFast
p7
sS'subject'
p8
V1
s.