(dp1
S'paramsFile'
p2
V/Users/huberl/Documents/Programme_und_Grafik/Psychopy/TappingWithTrTiming/Pickles/TappingParams.pickle
p3
sS'session'
p4
I4
sS'skipPrompts'
p5
I00
sS'condition'
p6
VTapRight
p7
sS'subject'
p8
V1
s.