(dp1
S'paramsFile'
p2
V/Users/huberl/Documents/Programme_und_Grafik/Psychopy/TappingWithTrTiming/Pickles/LetterOrder_20trialRUN_GONOGO_LEE_2nd.pickle
p3
sS'session'
p4
I3
sS'skipPrompts'
p5
I00
sS'subject'
p6
V1
s.